Certificate:
    Data:
        Version: 3 (0x2)
        Serial Number:
            79:46:e6:96:48:57:9e:a8:cf:cb:84:b2:4c:5a:1f:84
        Signature Algorithm: sha256WithRSAEncryption
        Issuer: CN=Guabifios Produtos Texteis Ltda
        Validity
            Not Before: Jul 14 13:39:55 2022 GMT
            Not After : Dec 30 13:39:55 2024 GMT
        Subject: CN=Guabifios Produtos Texteis Ltda
        Subject Public Key Info:
            Public Key Algorithm: rsaEncryption
                RSA Public-Key: (2048 bit)
                Modulus:
                    00:b4:19:d6:27:a3:e9:1e:cc:aa:af:a5:fb:2c:01:
                    e2:ac:44:8e:8e:be:a9:dc:b6:2e:62:9d:1d:82:e0:
                    5e:26:63:29:f1:8e:8f:35:a1:2a:8c:2e:2c:41:8a:
                    16:be:20:38:79:87:bd:bf:ab:80:b3:d8:60:c8:07:
                    29:3d:ef:5f:42:29:53:b8:4c:0c:37:57:f3:f9:81:
                    63:fb:2b:2b:ea:08:da:01:2a:b4:19:f9:46:1b:5c:
                    30:79:b5:9d:e9:48:9c:d4:00:4f:cb:6b:37:9f:de:
                    c6:f0:0d:40:3e:5a:7e:9c:c6:48:a8:8a:fa:3d:a4:
                    3a:88:90:6a:d4:21:90:e8:3b:4b:2a:5a:ae:c9:45:
                    cb:b7:2f:35:d4:56:8a:16:82:1b:93:28:99:63:69:
                    64:f0:01:30:56:f0:82:02:62:68:38:73:23:35:99:
                    22:8d:12:67:ba:c7:60:ac:e3:3c:67:44:36:98:6c:
                    27:08:2c:fa:57:10:09:7c:be:08:ad:35:a0:fd:1c:
                    ee:35:15:c4:98:2e:83:89:7d:0f:02:5a:28:d5:5d:
                    ff:7c:96:f7:dc:00:5c:54:47:04:61:64:c5:e8:16:
                    b1:9a:bc:b3:6f:4e:3d:1e:c4:b3:e4:4f:f5:33:5c:
                    d5:6f:da:ce:89:c7:66:f5:30:f3:5f:78:e2:81:e2:
                    f0:f9
                Exponent: 65537 (0x10001)
        X509v3 extensions:
            X509v3 Basic Constraints: 
                CA:FALSE
            X509v3 Subject Key Identifier: 
                7C:28:7D:81:21:23:4E:3D:9F:7B:CF:EC:E9:6A:13:AE:1A:1D:31:6F
            X509v3 Authority Key Identifier: 
                keyid:3F:05:11:69:EC:8D:37:CA:07:0B:E0:B0:2B:84:16:F1:4B:57:B1:FD
                DirName:/CN=Guabifios Produtos Texteis Ltda
                serial:09:86:A6:09:AA:C3:9B:8E:73:64:EB:E8:3C:C6:AF:90:4D:BB:EA:04

            X509v3 Extended Key Usage: 
                TLS Web Client Authentication
            X509v3 Key Usage: 
                Digital Signature
    Signature Algorithm: sha256WithRSAEncryption
         3b:c0:73:32:12:18:bc:0f:a2:1e:1a:ed:46:6a:ad:f9:b1:ed:
         23:14:e2:92:86:ae:8a:3c:6b:48:6b:83:4c:40:81:64:25:cd:
         17:6a:d5:b3:18:49:14:c6:9b:3e:b1:c9:24:bd:3b:96:79:f4:
         83:c9:4e:f1:3b:83:af:7a:f5:e3:88:d9:90:cf:01:d7:4b:35:
         ff:6f:f5:aa:e8:81:b7:76:fc:90:99:97:18:4f:cb:e0:1c:bd:
         46:45:ce:4c:7c:21:c3:10:e7:aa:9f:ae:68:23:5b:24:76:ee:
         0e:ba:8a:0c:e0:4c:26:5d:30:9a:b3:39:dd:af:ba:57:ab:0d:
         60:b1:68:17:17:1c:63:85:e8:bb:a7:35:c8:ca:17:56:0d:e6:
         73:ab:5f:0a:63:fb:21:84:ec:f4:db:31:a7:07:4c:f4:5b:b4:
         57:e9:6a:ce:9f:22:5a:1b:b6:46:3b:e0:92:52:96:f4:9e:f1:
         6f:79:15:01:03:a9:6a:0c:3f:13:56:b4:be:1f:e8:8c:23:49:
         2e:8d:9a:38:03:95:9a:0b:bd:aa:a0:e1:94:ad:bc:d2:1c:f0:
         e0:80:2c:e3:ca:49:76:92:61:01:2e:5b:62:65:75:64:da:ae:
         12:09:fc:03:15:88:b2:0c:1c:1f:46:4e:21:10:cf:bc:e7:5e:
         20:21:01:84
-----BEGIN CERTIFICATE-----
MIIDlTCCAn2gAwIBAgIQeUbmlkhXnqjPy4SyTFofhDANBgkqhkiG9w0BAQsFADAq
MSgwJgYDVQQDDB9HdWFiaWZpb3MgUHJvZHV0b3MgVGV4dGVpcyBMdGRhMB4XDTIy
MDcxNDEzMzk1NVoXDTI0MTIzMDEzMzk1NVowKjEoMCYGA1UEAwwfR3VhYmlmaW9z
IFByb2R1dG9zIFRleHRlaXMgTHRkYTCCASIwDQYJKoZIhvcNAQEBBQADggEPADCC
AQoCggEBALQZ1iej6R7Mqq+l+ywB4qxEjo6+qdy2LmKdHYLgXiZjKfGOjzWhKowu
LEGKFr4gOHmHvb+rgLPYYMgHKT3vX0IpU7hMDDdX8/mBY/srK+oI2gEqtBn5Rhtc
MHm1nelInNQAT8trN5/exvANQD5afpzGSKiK+j2kOoiQatQhkOg7SyparslFy7cv
NdRWihaCG5MomWNpZPABMFbwggJiaDhzIzWZIo0SZ7rHYKzjPGdENphsJwgs+lcQ
CXy+CK01oP0c7jUVxJgug4l9DwJaKNVd/3yW99wAXFRHBGFkxegWsZq8s29OPR7E
s+RP9TNc1W/azonHZvUw81944oHi8PkCAwEAAaOBtjCBszAJBgNVHRMEAjAAMB0G
A1UdDgQWBBR8KH2BISNOPZ97z+zpahOuGh0xbzBlBgNVHSMEXjBcgBQ/BRFp7I03
ygcL4LArhBbxS1ex/aEupCwwKjEoMCYGA1UEAwwfR3VhYmlmaW9zIFByb2R1dG9z
IFRleHRlaXMgTHRkYYIUCYamCarDm45zZOvoPMavkE276gQwEwYDVR0lBAwwCgYI
KwYBBQUHAwIwCwYDVR0PBAQDAgeAMA0GCSqGSIb3DQEBCwUAA4IBAQA7wHMyEhi8
D6IeGu1Gaq35se0jFOKShq6KPGtIa4NMQIFkJc0XatWzGEkUxps+sckkvTuWefSD
yU7xO4OvevXjiNmQzwHXSzX/b/Wq6IG3dvyQmZcYT8vgHL1GRc5MfCHDEOeqn65o
I1skdu4OuooM4EwmXTCaszndr7pXqw1gsWgXFxxjhei7pzXIyhdWDeZzq18KY/sh
hOz02zGnB0z0W7RX6WrOnyJaG7ZGO+CSUpb0nvFveRUBA6lqDD8TVrS+H+iMI0ku
jZo4A5WaC72qoOGUrbzSHPDggCzjykl2kmEBLltiZXVk2q4SCfwDFYiyDBwfRk4h
EM+8514gIQGE
-----END CERTIFICATE-----
